target datalayout = "e-m:e-p270:32:32-p271:32:32-p272:64:64-i64:64-i128:128-f80:128-n8:16:32:64-S128"
target triple = "x86_64-pc-linux-gnu"

@hf_zvt_tlv_total_len = internal global i32 0, align 4

; Function Attrs: null_pointer_is_valid sspstrong uwtable
define internal i32 @dissect_zvt_tlv_len(ptr noundef %0, i32 noundef %1, ptr noundef %2, ptr noundef %3, i32 noundef %4, ptr noundef %5) #0 {
  %7 = alloca i32, align 4
  %8 = alloca ptr, align 8
  %9 = alloca i32, align 4
  %10 = alloca ptr, align 8
  %11 = alloca ptr, align 8
  %12 = alloca i32, align 4
  %13 = alloca ptr, align 8
  %14 = alloca i16, align 2
  %15 = alloca i32, align 4
  %16 = alloca i32, align 4
  store ptr %0, ptr %8, align 8
  store i32 %1, ptr %9, align 4
  store ptr %2, ptr %10, align 8
  store ptr %3, ptr %11, align 8
  store i32 %4, ptr %12, align 4
  store ptr %5, ptr %13, align 8
  call void @llvm.lifetime.start.p0(i64 2, ptr %14) #7
  call void @llvm.lifetime.start.p0(i64 4, ptr %15) #7
  store i32 1, ptr %15, align 4
  %17 = load ptr, ptr %8, align 8
  %18 = load i32, ptr %9, align 4
  %19 = call zeroext i8 @tvb_get_uint8(ptr noundef %17, i32 noundef %18)
  %20 = zext i8 %19 to i16
  store i16 %20, ptr %14, align 2
  %21 = load i16, ptr %14, align 2
  %22 = zext i16 %21 to i32
  %23 = and i32 %22, 128
  %24 = icmp ne i32 %23, 0
  br i1 %24, label %25, label %53

25:                                               ; preds = %6
  %26 = load i16, ptr %14, align 2
  %27 = zext i16 %26 to i32
  %28 = and i32 %27, 3
  %29 = icmp eq i32 %28, 1
  br i1 %29, label %30, label %38

30:                                               ; preds = %25
  %31 = load i32, ptr %15, align 4
  %32 = add i32 %31, 1
  store i32 %32, ptr %15, align 4
  %33 = load ptr, ptr %8, align 8
  %34 = load i32, ptr %9, align 4
  %35 = add i32 %34, 1
  %36 = call zeroext i8 @tvb_get_uint8(ptr noundef %33, i32 noundef %35)
  %37 = zext i8 %36 to i16
  store i16 %37, ptr %14, align 2
  br label %52

38:                                               ; preds = %25
  %39 = load i16, ptr %14, align 2
  %40 = zext i16 %39 to i32
  %41 = and i32 %40, 3
  %42 = icmp eq i32 %41, 2
  br i1 %42, label %43, label %50

43:                                               ; preds = %38
  %44 = load i32, ptr %15, align 4
  %45 = add i32 %44, 2
  store i32 %45, ptr %15, align 4
  %46 = load ptr, ptr %8, align 8
  %47 = load i32, ptr %9, align 4
  %48 = add i32 %47, 1
  %49 = call zeroext i16 @tvb_get_ntohs(ptr noundef %46, i32 noundef %48)
  store i16 %49, ptr %14, align 2
  br label %51

50:                                               ; preds = %38
  store i32 -1, ptr %7, align 4
  store i32 1, ptr %16, align 4
  br label %69

51:                                               ; preds = %43
  br label %52

52:                                               ; preds = %51, %30
  br label %53

53:                                               ; preds = %52, %6
  %54 = load ptr, ptr %11, align 8
  %55 = load i32, ptr %12, align 4
  %56 = load ptr, ptr %8, align 8
  %57 = load i32, ptr %9, align 4
  %58 = load i32, ptr %15, align 4
  %59 = load i16, ptr %14, align 2
  %60 = zext i16 %59 to i32
  %61 = call ptr @proto_tree_add_uint(ptr noundef %54, i32 noundef %55, ptr noundef %56, i32 noundef %57, i32 noundef %58, i32 noundef %60)
  %62 = load ptr, ptr %13, align 8
  %63 = icmp ne ptr %62, null
  br i1 %63, label %64, label %67

64:                                               ; preds = %53
  %65 = load i16, ptr %14, align 2
  %66 = load ptr, ptr %13, align 8
  store i16 %65, ptr %66, align 2
  br label %67

67:                                               ; preds = %64, %53
  %68 = load i32, ptr %15, align 4
  store i32 %68, ptr %7, align 4
  store i32 1, ptr %16, align 4
  br label %69

69:                                               ; preds = %67, %50
  call void @llvm.lifetime.end.p0(i64 4, ptr %15) #7
  call void @llvm.lifetime.end.p0(i64 2, ptr %14) #7
  %70 = load i32, ptr %7, align 4
  ret i32 %70
}

; Function Attrs: null_pointer_is_valid sspstrong uwtable
define internal i32 @dissect_zvt_tlv_container(ptr noundef %0, i32 noundef %1, ptr noundef %2, ptr noundef %3) #0 {
  %5 = alloca ptr, align 8
  %6 = alloca i32, align 4
  %7 = alloca ptr, align 8
  %8 = alloca ptr, align 8
  %9 = alloca i32, align 4
  %10 = alloca i32, align 4
  %11 = alloca i32, align 4
  %12 = alloca i16, align 2
  store ptr %0, ptr %5, align 8
  store i32 %1, ptr %6, align 4
  store ptr %2, ptr %7, align 8
  store ptr %3, ptr %8, align 8
  call void @llvm.lifetime.start.p0(i64 4, ptr %9) #7
  call void @llvm.lifetime.start.p0(i64 4, ptr %10) #7
  call void @llvm.lifetime.start.p0(i64 4, ptr %11) #7
  call void @llvm.lifetime.start.p0(i64 2, ptr %12) #7
  store i16 0, ptr %12, align 2
  %13 = load i32, ptr %6, align 4
  store i32 %13, ptr %9, align 4
  %14 = load ptr, ptr %5, align 8
  %15 = load i32, ptr %6, align 4
  %16 = load ptr, ptr %7, align 8
  %17 = load ptr, ptr %8, align 8
  %18 = load i32, ptr @hf_zvt_tlv_total_len, align 4
  %19 = call i32 @dissect_zvt_tlv_len(ptr noundef %14, i32 noundef %15, ptr noundef %16, ptr noundef %17, i32 noundef %18, ptr noundef %12)
  store i32 %19, ptr %10, align 4
  %20 = load i32, ptr %10, align 4
  %21 = icmp sgt i32 %20, 0
  br i1 %21, label %22, label %26

22:                                               ; preds = %4
  %23 = load i32, ptr %10, align 4
  %24 = load i32, ptr %6, align 4
  %25 = add i32 %24, %23
  store i32 %25, ptr %6, align 4
  br label %26

26:                                               ; preds = %22, %4
  %27 = load ptr, ptr %5, align 8
  %28 = load i32, ptr %6, align 4
  %29 = load i16, ptr %12, align 2
  %30 = load ptr, ptr %7, align 8
  %31 = load ptr, ptr %8, align 8
  %32 = call i32 @dissect_zvt_tlv_seq(ptr noundef %27, i32 noundef %28, i16 noundef zeroext %29, ptr noundef %30, ptr noundef %31, ptr noundef null)
  store i32 %32, ptr %11, align 4
  %33 = load i32, ptr %11, align 4
  %34 = icmp sgt i32 %33, 0
  br i1 %34, label %35, label %39

35:                                               ; preds = %26
  %36 = load i32, ptr %11, align 4
  %37 = load i32, ptr %6, align 4
  %38 = add i32 %37, %36
  store i32 %38, ptr %6, align 4
  br label %39

39:                                               ; preds = %35, %26
  %40 = load i32, ptr %6, align 4
  %41 = load i32, ptr %9, align 4
  %42 = sub i32 %40, %41
  call void @llvm.lifetime.end.p0(i64 2, ptr %12) #7
  call void @llvm.lifetime.end.p0(i64 4, ptr %11) #7
  call void @llvm.lifetime.end.p0(i64 4, ptr %10) #7
  call void @llvm.lifetime.end.p0(i64 4, ptr %9) #7
  ret i32 %42
}