; Function Attrs: null_pointer_is_valid sspstrong uwtable
define internal i32 @dissect_zvt_tlv_container(ptr noundef %0, i32 noundef %1, ptr noundef %2, ptr noundef %3) #0 {
  %5 = load i32, ptr @hf_zvt_tlv_total_len, align 4
  %6 = tail call zeroext i8 @tvb_get_uint8(ptr noundef %0, i32 noundef %1)
  %7 = zext nneg i8 %6 to i16
  %.not.i = icmp sgt i8 %6, -1
  br i1 %.not.i, label %17, label %8

8:                                                ; preds = %4
  %9 = and i8 %6, 3
  switch i8 %9, label %dissect_zvt_tlv_len.exit [
    i8 1, label %10
    i8 2, label %14
  ]

10:                                               ; preds = %8
  %11 = add i32 %1, 1
  %12 = tail call zeroext i8 @tvb_get_uint8(ptr noundef %0, i32 noundef %11)
  %13 = zext i8 %12 to i16
  br label %17

14:                                               ; preds = %8
  %15 = add i32 %1, 1
  %16 = tail call zeroext i16 @tvb_get_ntohs(ptr noundef %0, i32 noundef %15)
  br label %17

17:                                               ; preds = %4, %10, %14
  %.021.i = phi i16 [ %13, %10 ], [ %16, %14 ], [ %7, %4 ]
  %.0.i = phi i32 [ 2, %10 ], [ 3, %14 ], [ 1, %4 ]
  %18 = zext i16 %.021.i to i32
  %19 = tail call ptr @proto_tree_add_uint(ptr noundef %3, i32 noundef %5, ptr noundef %0, i32 noundef %1, i32 noundef %.0.i, i32 noundef %18)
  %20 = add i32 %.0.i, %1
  br label %dissect_zvt_tlv_len.exit

dissect_zvt_tlv_len.exit:                         ; preds = %8, %17
  %.020 = phi i16 [ %.021.i, %17 ], [ 0, %8 ]
  %21 = phi i32 [ %20, %17 ], [ %1, %8 ]
  %22 = tail call fastcc i32 @dissect_zvt_tlv_seq(ptr noundef %0, i32 noundef %21, i16 noundef zeroext %.020, ptr noundef %2, ptr noundef %3, ptr noundef null)
  %23 = tail call i32 @llvm.smax.i32(i32 %22, i32 0)
  %.1 = sub i32 %21, %1
  %24 = add i32 %.1, %23
  ret i32 %24
}